target datalayout = "e-m:e-p270:32:32-p271:32:32-p272:64:64-i64:64-i128:128-f80:128-n8:16:32:64-S128"
target triple = "x86_64-pc-linux-gnu"

%struct.PyInterpreterConfig = type { i32, i32, i32, i32, i32, i32, i32 }
%struct.PyStatus = type { i32, ptr, ptr, i32 }

@__const.Py_NewInterpreter.config = private unnamed_addr constant %struct.PyInterpreterConfig { i32 1, i32 1, i32 1, i32 1, i32 1, i32 0, i32 1 }, align 4

; Function Attrs: nounwind uwtable
define dso_local ptr @Py_NewInterpreter() #1 {
  %1 = alloca ptr, align 8
  %2 = alloca i64, align 8
  %3 = alloca %struct.PyInterpreterConfig, align 4
  %4 = alloca %struct.PyStatus, align 8
  call void @llvm.lifetime.start.p0(i64 8, ptr %1) #14
  store ptr null, ptr %1, align 8, !tbaa !214
  call void @llvm.lifetime.start.p0(i64 8, ptr %2) #14
  store i64 2, ptr %2, align 8, !tbaa !200
  call void @llvm.lifetime.start.p0(i64 28, ptr %3) #14
  call void @llvm.memcpy.p0.p0.i64(ptr align 4 %3, ptr align 4 @__const.Py_NewInterpreter.config, i64 28, i1 false)
  call void @llvm.lifetime.start.p0(i64 32, ptr %4) #14
  %5 = load i64, ptr %2, align 8, !tbaa !200
  call void @new_interpreter(ptr dead_on_unwind writable sret(%struct.PyStatus) align 8 %4, ptr noundef %1, ptr noundef %3, i64 noundef %5)
  %6 = getelementptr inbounds nuw %struct.PyStatus, ptr %4, i32 0, i32 0
  %7 = load i32, ptr %6, align 8, !tbaa !8
  %8 = icmp ne i32 %7, 0
  br i1 %8, label %9, label %10

9:                                                ; preds = %0
  call void @Py_ExitStatusException(ptr noundef byval(%struct.PyStatus) align 8 %4) #16
  unreachable

10:                                               ; preds = %0
  %11 = load ptr, ptr %1, align 8, !tbaa !214
  call void @llvm.lifetime.end.p0(i64 32, ptr %4) #14
  call void @llvm.lifetime.end.p0(i64 28, ptr %3) #14
  call void @llvm.lifetime.end.p0(i64 8, ptr %2) #14
  call void @llvm.lifetime.end.p0(i64 8, ptr %1) #14
  ret ptr %11
}