; Function Attrs: nounwind uwtable
define dso_local ptr @Py_NewInterpreter() local_unnamed_addr #1 {
  %1 = alloca ptr, align 8
  %2 = alloca %struct.PyStatus, align 8
  call void @llvm.lifetime.start.p0(i64 8, ptr nonnull %1) #23
  store ptr null, ptr %1, align 8, !tbaa !212
  call void @llvm.lifetime.start.p0(i64 32, ptr nonnull %2) #23
  call fastcc void @new_interpreter(ptr dead_on_unwind noalias nonnull writable align 8 %2, ptr noundef nonnull %1, ptr noundef nonnull @__const.Py_NewInterpreter.config, i64 noundef 2)
  %3 = load i32, ptr %2, align 8, !tbaa !183
  %.not = icmp eq i32 %3, 0
  br i1 %.not, label %5, label %4

4:                                                ; preds = %0
  tail call void @Py_ExitStatusException(ptr noundef nonnull byval(%struct.PyStatus) align 8 %2) #27
  unreachable

5:                                                ; preds = %0
  %6 = load ptr, ptr %1, align 8, !tbaa !212
  call void @llvm.lifetime.end.p0(i64 32, ptr nonnull %2) #23
  call void @llvm.lifetime.end.p0(i64 8, ptr nonnull %1) #23
  ret ptr %6
}